; Function Attrs: nounwind uwtable
define hidden void @malloc_mutex_postfork_child(ptr nocapture noundef readnone %tsdn, ptr noundef %mutex) local_unnamed_addr #0 {
entry:
  %attr.i = alloca %union.pthread_mutexattr_t, align 4
  %rank = getelementptr inbounds i8, ptr %mutex, i64 8
  call void @llvm.lifetime.start.p0(i64 4, ptr nonnull %attr.i)
  tail call void @llvm.memset.p0.i64(ptr noundef nonnull align 8 dereferenceable(64) %mutex, i8 0, i64 64, i1 false)
  tail call void @nstime_copy(ptr noundef nonnull %rank, ptr noundef nonnull @nstime_zero) #7
  tail call void @nstime_copy(ptr noundef %mutex, ptr noundef nonnull @nstime_zero) #7
  %prev_owner.i.i = getelementptr inbounds i8, ptr %mutex, i64 48
  store ptr null, ptr %prev_owner.i.i, align 8
  %call.i = call i32 @pthread_mutexattr_init(ptr noundef nonnull %attr.i) #7
  %cmp.not.i = icmp eq i32 %call.i, 0
  br i1 %cmp.not.i, label %malloc_mutex_init.exit, label %malloc_mutex_init.exit.thread

malloc_mutex_init.exit.thread:                    ; preds = %entry
  call void @llvm.lifetime.end.p0(i64 4, ptr nonnull %attr.i)
  br label %if.then

malloc_mutex_init.exit:                           ; preds = %entry
  %call1.i = call i32 @pthread_mutexattr_settype(ptr noundef nonnull %attr.i, i32 noundef 0) #7
  %lock.i = getelementptr inbounds i8, ptr %mutex, i64 64
  %call2.i = call i32 @pthread_mutex_init(ptr noundef nonnull %lock.i, ptr noundef nonnull %attr.i) #7
  %cmp3.not.i.not = icmp eq i32 %call2.i, 0
  %call7.i = call i32 @pthread_mutexattr_destroy(ptr noundef nonnull %attr.i) #7
  call void @llvm.lifetime.end.p0(i64 4, ptr nonnull %attr.i)
  br i1 %cmp3.not.i.not, label %if.end2, label %if.then

if.then:                                          ; preds = %malloc_mutex_init.exit.thread, %malloc_mutex_init.exit
  call void (ptr, ...) @malloc_printf(ptr noundef nonnull @.str) #7
  %0 = load i8, ptr @opt_abort, align 1
  %1 = and i8 %0, 1
  %tobool.not = icmp eq i8 %1, 0
  br i1 %tobool.not, label %if.end2, label %if.then1

if.then1:                                         ; preds = %if.then
  call void @abort() #8
  unreachable

if.end2:                                          ; preds = %if.then, %malloc_mutex_init.exit
  ret void
}